; Function Attrs: nofree norecurse nosync nounwind memory(readwrite, inaccessiblemem: none) uwtable
define internal noundef i32 @resS(i32 %0, double %1, ptr noundef readonly captures(none) %2, ptr readnone captures(none) %3, ptr readnone captures(none) %4, ptr noundef readonly captures(none) %5, ptr noundef readonly captures(none) %6, ptr noundef readonly captures(none) %7, ptr noundef readonly captures(none) %8, ptr readnone captures(none) %9, ptr readnone captures(none) %10, ptr readnone captures(none) %11) #6 {
  %13 = load double, ptr %8, align 8, !tbaa !11
  %14 = getelementptr inbounds nuw i8, ptr %8, i64 8
  %15 = load double, ptr %14, align 8, !tbaa !11
  %16 = getelementptr inbounds nuw i8, ptr %8, i64 16
  %17 = load double, ptr %16, align 8, !tbaa !11
  %18 = load ptr, ptr %2, align 8, !tbaa !17
  %19 = getelementptr inbounds nuw i8, ptr %18, i64 16
  %20 = load ptr, ptr %19, align 8, !tbaa !20
  %21 = load double, ptr %20, align 8, !tbaa !11
  %22 = getelementptr inbounds nuw i8, ptr %20, i64 8
  %23 = load double, ptr %22, align 8, !tbaa !11
  %24 = getelementptr inbounds nuw i8, ptr %20, i64 16
  %25 = load double, ptr %24, align 8, !tbaa !11
  %26 = fmul double %15, %25
  %27 = fneg double %26
  %28 = fmul double %15, %23
  %29 = fneg double %28
  %30 = fneg double %13
  %31 = fmul double %17, 2.000000e+00
  %32 = fmul double %31, %23
  %33 = fneg double %23
  br label %34

34:                                               ; preds = %12, %71
  %indvars.iv = phi i64 [ 0, %12 ], [ %indvars.iv.next, %71 ]
  %35 = getelementptr inbounds nuw ptr, ptr %5, i64 %indvars.iv
  %36 = load ptr, ptr %35, align 8, !tbaa !26
  %37 = load ptr, ptr %36, align 8, !tbaa !17
  %38 = getelementptr inbounds nuw i8, ptr %37, i64 16
  %39 = load ptr, ptr %38, align 8, !tbaa !20
  %40 = load double, ptr %39, align 8, !tbaa !11
  %41 = getelementptr inbounds nuw i8, ptr %39, i64 8
  %42 = load double, ptr %41, align 8, !tbaa !11
  %43 = getelementptr inbounds nuw i8, ptr %39, i64 16
  %44 = load double, ptr %43, align 8, !tbaa !11
  %45 = getelementptr inbounds nuw ptr, ptr %6, i64 %indvars.iv
  %46 = load ptr, ptr %45, align 8, !tbaa !26
  %47 = load ptr, ptr %46, align 8, !tbaa !17
  %48 = getelementptr inbounds nuw i8, ptr %47, i64 16
  %49 = load ptr, ptr %48, align 8, !tbaa !20
  %50 = load double, ptr %49, align 8, !tbaa !11
  %51 = getelementptr inbounds nuw i8, ptr %49, i64 8
  %52 = load double, ptr %51, align 8, !tbaa !11
  %53 = tail call double @llvm.fmuladd.f64(double %13, double %40, double %50)
  %54 = tail call double @llvm.fmuladd.f64(double %27, double %42, double %53)
  %55 = tail call double @llvm.fmuladd.f64(double %29, double %44, double %54)
  %56 = tail call double @llvm.fmuladd.f64(double %30, double %40, double %52)
  %57 = tail call double @llvm.fmuladd.f64(double %26, double %42, double %56)
  %58 = tail call double @llvm.fmuladd.f64(double %28, double %44, double %57)
  %59 = tail call double @llvm.fmuladd.f64(double %32, double %42, double %58)
  %60 = fadd double %40, %42
  %61 = fadd double %60, %44
  %62 = trunc nuw nsw i64 %indvars.iv to i32
  switch i32 %62, label %default.unreachable [
    i32 0, label %63
    i32 1, label %66
    i32 2, label %69
  ]

63:                                               ; preds = %34
  %64 = fadd double %21, %55
  %65 = fsub double %59, %21
  br label %71

66:                                               ; preds = %34
  %67 = tail call double @llvm.fmuladd.f64(double %33, double %25, double %55)
  %68 = tail call double @llvm.fmuladd.f64(double %23, double %25, double %59)
  br label %71

69:                                               ; preds = %34
  %70 = tail call double @llvm.fmuladd.f64(double %23, double %23, double %59)
  br label %71

default.unreachable:                              ; preds = %34
  unreachable

71:                                               ; preds = %69, %66, %63
  %.066 = phi double [ %70, %69 ], [ %68, %66 ], [ %65, %63 ]
  %.065 = phi double [ %55, %69 ], [ %67, %66 ], [ %64, %63 ]
  %72 = getelementptr inbounds nuw ptr, ptr %7, i64 %indvars.iv
  %73 = load ptr, ptr %72, align 8, !tbaa !26
  %74 = load ptr, ptr %73, align 8, !tbaa !17
  %75 = getelementptr inbounds nuw i8, ptr %74, i64 16
  %76 = load ptr, ptr %75, align 8, !tbaa !20
  store double %.065, ptr %76, align 8, !tbaa !11
  %77 = getelementptr inbounds nuw i8, ptr %76, i64 8
  store double %.066, ptr %77, align 8, !tbaa !11
  %78 = getelementptr inbounds nuw i8, ptr %76, i64 16
  store double %61, ptr %78, align 8, !tbaa !11
  %indvars.iv.next = add nuw nsw i64 %indvars.iv, 1
  %exitcond.not = icmp eq i64 %indvars.iv.next, 3
  br i1 %exitcond.not, label %79, label %34

79:                                               ; preds = %71
  ret i32 0
}